; Function Attrs: mustprogress nounwind ssp uwtable
define internal void @_ZNSt15_Sp_counted_ptrIPN6open3d8geometry12_GLOBAL__N_123BoundaryVolumeHierarchyELN9__gnu_cxx12_Lock_policyE2EE10_M_disposeEv(ptr noundef nonnull readonly align 8 captures(none) dereferenceable(24) %0) unnamed_addr #9 align 2 personality ptr @__gxx_personality_v0 {
  %2 = getelementptr inbounds nuw i8, ptr %0, i64 16
  %3 = load ptr, ptr %2, align 8, !tbaa !241
  %4 = icmp eq ptr %3, null
  br i1 %4, label %37, label %5

5:                                                ; preds = %1
  %6 = getelementptr inbounds nuw i8, ptr %3, i64 208
  %7 = load ptr, ptr %6, align 8, !tbaa !48
  %.not.i.i.i.i = icmp eq ptr %7, null
  br i1 %.not.i.i.i.i, label %_ZNSt6vectorImSaImEED2Ev.exit.i, label %8

8:                                                ; preds = %5
  %9 = getelementptr inbounds nuw i8, ptr %3, i64 224
  %10 = load ptr, ptr %9, align 8, !tbaa !50
  %11 = ptrtoint ptr %10 to i64
  %12 = ptrtoint ptr %7 to i64
  %13 = sub i64 %11, %12
  tail call void @_ZdlPvm(ptr noundef nonnull %7, i64 noundef %13) #36
  br label %_ZNSt6vectorImSaImEED2Ev.exit.i

_ZNSt6vectorImSaImEED2Ev.exit.i:                  ; preds = %8, %5
  %invariant.gep.i = getelementptr i8, ptr %3, i64 -8
  br label %14

14:                                               ; preds = %_ZNSt12__shared_ptrIN6open3d8geometry12_GLOBAL__N_123BoundaryVolumeHierarchyELN9__gnu_cxx12_Lock_policyE2EED2Ev.exit.i.i, %_ZNSt6vectorImSaImEED2Ev.exit.i
  %.idx.i = phi i64 [ 136, %_ZNSt6vectorImSaImEED2Ev.exit.i ], [ %.add.i, %_ZNSt12__shared_ptrIN6open3d8geometry12_GLOBAL__N_123BoundaryVolumeHierarchyELN9__gnu_cxx12_Lock_policyE2EED2Ev.exit.i.i ]
  %.add.i = add nsw i64 %.idx.i, -16
  %gep.i = getelementptr i8, ptr %invariant.gep.i, i64 %.idx.i
  %.val.i.i = load ptr, ptr %gep.i, align 8, !tbaa !53
  %.not.i.i.i1.i = icmp eq ptr %.val.i.i, null
  br i1 %.not.i.i.i1.i, label %_ZNSt12__shared_ptrIN6open3d8geometry12_GLOBAL__N_123BoundaryVolumeHierarchyELN9__gnu_cxx12_Lock_policyE2EED2Ev.exit.i.i, label %15

15:                                               ; preds = %14
  %16 = getelementptr inbounds nuw i8, ptr %.val.i.i, i64 8
  %17 = load atomic i64, ptr %16 acquire, align 8
  %18 = icmp eq i64 %17, 4294967297
  %19 = trunc i64 %17 to i32
  br i1 %18, label %20, label %28

20:                                               ; preds = %15
  store i32 0, ptr %16, align 8, !tbaa !24
  %21 = getelementptr inbounds nuw i8, ptr %.val.i.i, i64 12
  store i32 0, ptr %21, align 4, !tbaa !27
  %22 = load ptr, ptr %.val.i.i, align 8, !tbaa !11
  %23 = getelementptr inbounds nuw i8, ptr %22, i64 16
  %24 = load ptr, ptr %23, align 8
  tail call void %24(ptr noundef nonnull align 8 dereferenceable(16) %.val.i.i) #5
  %25 = load ptr, ptr %.val.i.i, align 8, !tbaa !11
  %26 = getelementptr inbounds nuw i8, ptr %25, i64 24
  %27 = load ptr, ptr %26, align 8
  tail call void %27(ptr noundef nonnull align 8 dereferenceable(16) %.val.i.i) #5
  br label %_ZNSt12__shared_ptrIN6open3d8geometry12_GLOBAL__N_123BoundaryVolumeHierarchyELN9__gnu_cxx12_Lock_policyE2EED2Ev.exit.i.i

28:                                               ; preds = %15
  %29 = load i8, ptr @__libc_single_threaded, align 1, !tbaa !13
  %.not.i.i.i.i.i = icmp eq i8 %29, 0
  br i1 %.not.i.i.i.i.i, label %32, label %30

30:                                               ; preds = %28
  %31 = add nsw i32 %19, -1
  store i32 %31, ptr %16, align 4, !tbaa !64
  br label %_ZN9__gnu_cxx27__exchange_and_add_dispatchEPii.exit.i.i.i.i.i

32:                                               ; preds = %28
  %33 = atomicrmw volatile add ptr %16, i32 -1 acq_rel, align 4
  br label %_ZN9__gnu_cxx27__exchange_and_add_dispatchEPii.exit.i.i.i.i.i

_ZN9__gnu_cxx27__exchange_and_add_dispatchEPii.exit.i.i.i.i.i: ; preds = %32, %30
  %.0.i.i.i.i.i.i = phi i32 [ %19, %30 ], [ %33, %32 ]
  %34 = icmp eq i32 %.0.i.i.i.i.i.i, 1
  br i1 %34, label %35, label %_ZNSt12__shared_ptrIN6open3d8geometry12_GLOBAL__N_123BoundaryVolumeHierarchyELN9__gnu_cxx12_Lock_policyE2EED2Ev.exit.i.i, !prof !87

35:                                               ; preds = %_ZN9__gnu_cxx27__exchange_and_add_dispatchEPii.exit.i.i.i.i.i
  tail call void @_ZNSt16_Sp_counted_baseILN9__gnu_cxx12_Lock_policyE2EE24_M_release_last_use_coldEv(ptr noundef nonnull align 8 dereferenceable(16) %.val.i.i) #5
  br label %_ZNSt12__shared_ptrIN6open3d8geometry12_GLOBAL__N_123BoundaryVolumeHierarchyELN9__gnu_cxx12_Lock_policyE2EED2Ev.exit.i.i

_ZNSt12__shared_ptrIN6open3d8geometry12_GLOBAL__N_123BoundaryVolumeHierarchyELN9__gnu_cxx12_Lock_policyE2EED2Ev.exit.i.i: ; preds = %35, %_ZN9__gnu_cxx27__exchange_and_add_dispatchEPii.exit.i.i.i.i.i, %20, %14
  %36 = icmp eq i64 %.add.i, 8
  br i1 %36, label %_ZN6open3d8geometry12_GLOBAL__N_123BoundaryVolumeHierarchyD2Ev.exit, label %14

_ZN6open3d8geometry12_GLOBAL__N_123BoundaryVolumeHierarchyD2Ev.exit: ; preds = %_ZNSt12__shared_ptrIN6open3d8geometry12_GLOBAL__N_123BoundaryVolumeHierarchyELN9__gnu_cxx12_Lock_policyE2EED2Ev.exit.i.i
  tail call void @_ZdlPvm(ptr noundef nonnull %3, i64 noundef 232) #36
  br label %37

37:                                               ; preds = %_ZN6open3d8geometry12_GLOBAL__N_123BoundaryVolumeHierarchyD2Ev.exit, %1
  ret void
}